target datalayout = "e-m:e-p270:32:32-p271:32:32-p272:64:64-i64:64-i128:128-f80:128-n8:16:32:64-S128"
target triple = "x86_64-pc-linux-gnu"

@.str.18 = private unnamed_addr constant [8 x i8] c"UNKNOWN\00", align 1
@.str.19 = private unnamed_addr constant [17 x i8] c"rsa_pkcs1_sha256\00", align 1
@.str.20 = private unnamed_addr constant [17 x i8] c"rsa_pkcs1_sha384\00", align 1
@.str.21 = private unnamed_addr constant [17 x i8] c"rsa_pkcs1_sha512\00", align 1
@.str.22 = private unnamed_addr constant [23 x i8] c"ecdsa_secp256r1_sha256\00", align 1
@.str.23 = private unnamed_addr constant [23 x i8] c"ecdsa_secp384r1_sha384\00", align 1
@.str.24 = private unnamed_addr constant [23 x i8] c"ecdsa_secp521r1_sha512\00", align 1
@.str.25 = private unnamed_addr constant [20 x i8] c"rsa_pss_rsae_sha256\00", align 1
@.str.26 = private unnamed_addr constant [20 x i8] c"rsa_pss_rsae_sha384\00", align 1
@.str.27 = private unnamed_addr constant [20 x i8] c"rsa_pss_rsae_sha512\00", align 1
@.str.28 = private unnamed_addr constant [8 x i8] c"ed25519\00", align 1
@.str.29 = private unnamed_addr constant [6 x i8] c"ed448\00", align 1
@.str.30 = private unnamed_addr constant [19 x i8] c"rsa_pss_pss_sha256\00", align 1
@.str.31 = private unnamed_addr constant [19 x i8] c"rsa_pss_pss_sha384\00", align 1
@.str.32 = private unnamed_addr constant [19 x i8] c"rsa_pss_pss_sha512\00", align 1
@.str.33 = private unnamed_addr constant [15 x i8] c"rsa_pkcs1_sha1\00", align 1
@.str.34 = private unnamed_addr constant [11 x i8] c"ecdsa_sha1\00", align 1
@.str.35 = private unnamed_addr constant [5 x i8] c"none\00", align 1

; Function Attrs: nounwind uwtable
define hidden ptr @mbedtls_ssl_sig_alg_to_str(i16 noundef zeroext %0) #0 {
  %2 = alloca ptr, align 8
  %3 = alloca i16, align 2
  store i16 %0, ptr %3, align 2, !tbaa !3
  %4 = load i16, ptr %3, align 2, !tbaa !3
  %5 = zext i16 %4 to i32
  switch i32 %5, label %23 [
    i32 1025, label %6
    i32 1281, label %7
    i32 1537, label %8
    i32 1027, label %9
    i32 1283, label %10
    i32 1539, label %11
    i32 2052, label %12
    i32 2053, label %13
    i32 2054, label %14
    i32 2055, label %15
    i32 2056, label %16
    i32 2057, label %17
    i32 2058, label %18
    i32 2059, label %19
    i32 513, label %20
    i32 515, label %21
    i32 0, label %22
  ]

6:                                                ; preds = %1
  store ptr @.str.19, ptr %2, align 8
  br label %24

7:                                                ; preds = %1
  store ptr @.str.20, ptr %2, align 8
  br label %24

8:                                                ; preds = %1
  store ptr @.str.21, ptr %2, align 8
  br label %24

9:                                                ; preds = %1
  store ptr @.str.22, ptr %2, align 8
  br label %24

10:                                               ; preds = %1
  store ptr @.str.23, ptr %2, align 8
  br label %24

11:                                               ; preds = %1
  store ptr @.str.24, ptr %2, align 8
  br label %24

12:                                               ; preds = %1
  store ptr @.str.25, ptr %2, align 8
  br label %24

13:                                               ; preds = %1
  store ptr @.str.26, ptr %2, align 8
  br label %24

14:                                               ; preds = %1
  store ptr @.str.27, ptr %2, align 8
  br label %24

15:                                               ; preds = %1
  store ptr @.str.28, ptr %2, align 8
  br label %24

16:                                               ; preds = %1
  store ptr @.str.29, ptr %2, align 8
  br label %24

17:                                               ; preds = %1
  store ptr @.str.30, ptr %2, align 8
  br label %24

18:                                               ; preds = %1
  store ptr @.str.31, ptr %2, align 8
  br label %24

19:                                               ; preds = %1
  store ptr @.str.32, ptr %2, align 8
  br label %24

20:                                               ; preds = %1
  store ptr @.str.33, ptr %2, align 8
  br label %24

21:                                               ; preds = %1
  store ptr @.str.34, ptr %2, align 8
  br label %24

22:                                               ; preds = %1
  store ptr @.str.35, ptr %2, align 8
  br label %24

23:                                               ; preds = %1
  store ptr @.str.18, ptr %2, align 8
  br label %24

24:                                               ; preds = %23, %22, %21, %20, %19, %18, %17, %16, %15, %14, %13, %12, %11, %10, %9, %8, %7, %6
  %25 = load ptr, ptr %2, align 8
  ret ptr %25
}