; Function Attrs: mustprogress nofree norecurse nosync nounwind willreturn memory(none) uwtable
define hidden noundef nonnull ptr @mbedtls_ssl_sig_alg_to_str(i16 noundef zeroext %0) local_unnamed_addr #0 {
  switch i16 %0, label %18 [
    i16 1025, label %19
    i16 1281, label %2
    i16 1537, label %3
    i16 1027, label %4
    i16 1283, label %5
    i16 1539, label %6
    i16 2052, label %7
    i16 2053, label %8
    i16 2054, label %9
    i16 2055, label %10
    i16 2056, label %11
    i16 2057, label %12
    i16 2058, label %13
    i16 2059, label %14
    i16 513, label %15
    i16 515, label %16
    i16 0, label %17
  ]

2:                                                ; preds = %1
  br label %19

3:                                                ; preds = %1
  br label %19

4:                                                ; preds = %1
  br label %19

5:                                                ; preds = %1
  br label %19

6:                                                ; preds = %1
  br label %19

7:                                                ; preds = %1
  br label %19

8:                                                ; preds = %1
  br label %19

9:                                                ; preds = %1
  br label %19

10:                                               ; preds = %1
  br label %19

11:                                               ; preds = %1
  br label %19

12:                                               ; preds = %1
  br label %19

13:                                               ; preds = %1
  br label %19

14:                                               ; preds = %1
  br label %19

15:                                               ; preds = %1
  br label %19

16:                                               ; preds = %1
  br label %19

17:                                               ; preds = %1
  br label %19

18:                                               ; preds = %1
  br label %19

19:                                               ; preds = %1, %18, %17, %16, %15, %14, %13, %12, %11, %10, %9, %8, %7, %6, %5, %4, %3, %2
  %.0 = phi ptr [ @.str.18, %18 ], [ @.str.35, %17 ], [ @.str.34, %16 ], [ @.str.33, %15 ], [ @.str.32, %14 ], [ @.str.31, %13 ], [ @.str.30, %12 ], [ @.str.29, %11 ], [ @.str.28, %10 ], [ @.str.27, %9 ], [ @.str.26, %8 ], [ @.str.25, %7 ], [ @.str.24, %6 ], [ @.str.23, %5 ], [ @.str.22, %4 ], [ @.str.21, %3 ], [ @.str.20, %2 ], [ @.str.19, %1 ]
  ret ptr %.0
}